target datalayout = "e-m:e-p270:32:32-p271:32:32-p272:64:64-i64:64-i128:128-f80:128-n8:16:32:64-S128"
target triple = "x86_64-unknown-linux-gnu"

%"class.QuantLib::Observable" = type { ptr, %"class.std::set.0" }
%"class.std::set.0" = type { %"class.std::_Rb_tree.1" }
%"class.std::_Rb_tree.1" = type { %"struct.std::_Rb_tree<QuantLib::Observer *, QuantLib::Observer *, std::_Identity<QuantLib::Observer *>, std::less<QuantLib::Observer *>>::_Rb_tree_impl" }
%"struct.std::_Rb_tree<QuantLib::Observer *, QuantLib::Observer *, std::_Identity<QuantLib::Observer *>, std::less<QuantLib::Observer *>>::_Rb_tree_impl" = type { [8 x i8], %"struct.std::_Rb_tree_header" }
%"struct.std::_Rb_tree_header" = type { %"struct.std::_Rb_tree_node_base", i64 }
%"struct.std::_Rb_tree_node_base" = type { i32, ptr, ptr, ptr }
%"class.QuantLib::Observer" = type { ptr, %"class.std::set" }
%"class.std::set" = type { %"class.std::_Rb_tree" }
%"class.std::_Rb_tree" = type { %"struct.std::_Rb_tree<boost::shared_ptr<QuantLib::Observable>, boost::shared_ptr<QuantLib::Observable>, std::_Identity<boost::shared_ptr<QuantLib::Observable>>, std::less<boost::shared_ptr<QuantLib::Observable>>>::_Rb_tree_impl" }
%"struct.std::_Rb_tree<boost::shared_ptr<QuantLib::Observable>, boost::shared_ptr<QuantLib::Observable>, std::_Identity<boost::shared_ptr<QuantLib::Observable>>, std::less<boost::shared_ptr<QuantLib::Observable>>>::_Rb_tree_impl" = type { [8 x i8], %"struct.std::_Rb_tree_header" }
%"class.QuantLib::BlackCalibrationHelper::ImpliedVolatilityHelper" = type { ptr, double }
%"class.QuantLib::Brent" = type { %"class.QuantLib::Solver1D.base", [6 x i8] }
%"class.QuantLib::Solver1D.base" = type <{ double, double, double, double, double, i64, i64, double, double, i8, i8 }>
%"class.QuantLib::BlackCalibrationHelper" = type <{ %"class.QuantLib::LazyObject.base", [4 x i8], %"class.QuantLib::CalibrationHelper", double, %"class.QuantLib::Handle", %"class.boost::shared_ptr.9", i32, [4 x i8], double, i32, [4 x i8], %"class.QuantLib::Observable", %"class.QuantLib::Observer" }>
%"class.QuantLib::LazyObject.base" = type <{ ptr, i8, i8, i8, i8 }>
%"class.QuantLib::CalibrationHelper" = type { ptr }
%"class.QuantLib::Handle" = type { %"class.boost::shared_ptr.8" }
%"class.boost::shared_ptr.8" = type { ptr, %"class.boost::detail::shared_count" }
%"class.boost::detail::shared_count" = type { ptr }
%"class.boost::shared_ptr.9" = type { ptr, %"class.boost::detail::shared_count" }
%"class.QuantLib::Solver1D" = type <{ double, double, double, double, double, i64, i64, double, double, i8, i8, [6 x i8] }>
%"class.boost::shared_ptr.10" = type { ptr, %"class.boost::detail::shared_count" }

@.str.5 = private unnamed_addr constant [8 x i8] c"px != 0\00", align 1
@.str.6 = private unnamed_addr constant [102 x i8] c"generated/home/dtcxzyw/WorkSpace/SDK/vcpkg/installed/x64-linux/include/boost/smart_ptr/shared_ptr.hpp\00", align 1
@__PRETTY_FUNCTION__._ZNK5boost10shared_ptrIN8QuantLib5QuoteEEptEv = private unnamed_addr constant [127 x i8] c"typename boost::detail::sp_member_access<T>::type boost::shared_ptr<QuantLib::Quote>::operator->() const [T = QuantLib::Quote]\00", align 1

; Function Attrs: mustprogress nounwind uwtable
define linkonce_odr void @_ZN8QuantLib8Solver1DINS_5BrentEEC2Ev(ptr noundef nonnull align 8 dereferenceable(74) %this) unnamed_addr #4 comdat align 2 {
entry:
  %this.addr = alloca ptr, align 8
  store ptr %this, ptr %this.addr, align 8, !tbaa !3
  %this1 = load ptr, ptr %this.addr, align 8
  %maxEvaluations_ = getelementptr inbounds nuw %"class.QuantLib::Solver1D", ptr %this1, i32 0, i32 5
  store i64 100, ptr %maxEvaluations_, align 8, !tbaa !25
  %lowerBound_ = getelementptr inbounds nuw %"class.QuantLib::Solver1D", ptr %this1, i32 0, i32 7
  store double 0.000000e+00, ptr %lowerBound_, align 8, !tbaa !30
  %upperBound_ = getelementptr inbounds nuw %"class.QuantLib::Solver1D", ptr %this1, i32 0, i32 8
  store double 0.000000e+00, ptr %upperBound_, align 8, !tbaa !32
  %lowerBoundEnforced_ = getelementptr inbounds nuw %"class.QuantLib::Solver1D", ptr %this1, i32 0, i32 9
  store i8 0, ptr %lowerBoundEnforced_, align 8, !tbaa !29
  %upperBoundEnforced_ = getelementptr inbounds nuw %"class.QuantLib::Solver1D", ptr %this1, i32 0, i32 10
  store i8 0, ptr %upperBoundEnforced_, align 1, !tbaa !31
  ret void
}

; Function Attrs: mustprogress uwtable
define linkonce_odr noundef ptr @_ZNK5boost10shared_ptrIN8QuantLib5QuoteEEptEv(ptr noundef nonnull align 8 dereferenceable(16) %this) #8 comdat align 2 {
entry:
  %this.addr = alloca ptr, align 8
  store ptr %this, ptr %this.addr, align 8, !tbaa !3
  %this1 = load ptr, ptr %this.addr, align 8
  %px = getelementptr inbounds nuw %"class.boost::shared_ptr.10", ptr %this1, i32 0, i32 0
  %0 = load ptr, ptr %px, align 8, !tbaa !37
  %cmp = icmp ne ptr %0, null
  %lnot = xor i1 %cmp, true
  %lnot2 = xor i1 %lnot, true
  %conv = zext i1 %lnot2 to i64
  %expval = call i64 @llvm.expect.i64(i64 %conv, i64 1)
  %tobool = icmp ne i64 %expval, 0
  br i1 %tobool, label %cond.true, label %cond.false

cond.true:                                        ; preds = %entry
  br label %cond.end

cond.false:                                       ; preds = %entry
  call void @_ZN5boost16assertion_failedEPKcS1_S1_l(ptr noundef @.str.5, ptr noundef @__PRETTY_FUNCTION__._ZNK5boost10shared_ptrIN8QuantLib5QuoteEEptEv, ptr noundef @.str.6, i64 noundef 784)
  br label %cond.end

cond.end:                                         ; preds = %cond.false, %cond.true
  %px3 = getelementptr inbounds nuw %"class.boost::shared_ptr.10", ptr %this1, i32 0, i32 0
  %1 = load ptr, ptr %px3, align 8, !tbaa !37
  ret ptr %1
}

; Function Attrs: inlinehint mustprogress nounwind uwtable
define linkonce_odr void @_ZN8QuantLib8Solver1DINS_5BrentEE17setMaxEvaluationsEm(ptr noundef nonnull align 8 dereferenceable(74) %this, i64 noundef %evaluations) #9 comdat align 2 {
entry:
  %this.addr = alloca ptr, align 8
  %evaluations.addr = alloca i64, align 8
  store ptr %this, ptr %this.addr, align 8, !tbaa !3
  store i64 %evaluations, ptr %evaluations.addr, align 8, !tbaa !21
  %this1 = load ptr, ptr %this.addr, align 8
  %0 = load i64, ptr %evaluations.addr, align 8, !tbaa !21
  %maxEvaluations_ = getelementptr inbounds nuw %"class.QuantLib::Solver1D", ptr %this1, i32 0, i32 5
  store i64 %0, ptr %maxEvaluations_, align 8, !tbaa !25
  ret void
}

; Function Attrs: inlinehint mustprogress nounwind uwtable
define linkonce_odr void @_ZN8QuantLib5BrentC2Ev(ptr noundef nonnull align 8 dereferenceable(74) %this) unnamed_addr #9 comdat align 2 {
entry:
  %this.addr = alloca ptr, align 8
  store ptr %this, ptr %this.addr, align 8, !tbaa !3
  %this1 = load ptr, ptr %this.addr, align 8
  call void @_ZN8QuantLib8Solver1DINS_5BrentEEC2Ev(ptr noundef nonnull align 8 dereferenceable(74) %this1) #19
  ret void
}

; Function Attrs: mustprogress nounwind uwtable
define linkonce_odr void @_ZN8QuantLib22BlackCalibrationHelper23ImpliedVolatilityHelperC2ERKS0_d(ptr noundef nonnull align 8 dereferenceable(16) %this, ptr noundef nonnull align 8 dereferenceable(84) %helper, double noundef %value) unnamed_addr #4 comdat align 2 {
entry:
  %this.addr = alloca ptr, align 8
  %helper.addr = alloca ptr, align 8
  %value.addr = alloca double, align 8
  store ptr %this, ptr %this.addr, align 8, !tbaa !3
  store ptr %helper, ptr %helper.addr, align 8, !tbaa !3
  store double %value, ptr %value.addr, align 8, !tbaa !19
  %this1 = load ptr, ptr %this.addr, align 8
  %helper_ = getelementptr inbounds nuw %"class.QuantLib::BlackCalibrationHelper::ImpliedVolatilityHelper", ptr %this1, i32 0, i32 0
  %0 = load ptr, ptr %helper.addr, align 8, !tbaa !3
  store ptr %0, ptr %helper_, align 8, !tbaa !3
  %value_ = getelementptr inbounds nuw %"class.QuantLib::BlackCalibrationHelper::ImpliedVolatilityHelper", ptr %this1, i32 0, i32 1
  %1 = load double, ptr %value.addr, align 8, !tbaa !19
  store double %1, ptr %value_, align 8, !tbaa !23
  ret void
}

; Function Attrs: mustprogress uwtable
define noundef double @_ZNK8QuantLib22BlackCalibrationHelper17impliedVolatilityEddmdd(ptr noundef nonnull align 8 dereferenceable(84) %this, double noundef %targetValue, double noundef %accuracy, i64 noundef %maxEvaluations, double noundef %minVol, double noundef %maxVol) #8 align 2 {
entry:
  %this.addr = alloca ptr, align 8
  %targetValue.addr = alloca double, align 8
  %accuracy.addr = alloca double, align 8
  %maxEvaluations.addr = alloca i64, align 8
  %minVol.addr = alloca double, align 8
  %maxVol.addr = alloca double, align 8
  %f = alloca %"class.QuantLib::BlackCalibrationHelper::ImpliedVolatilityHelper", align 8
  %solver = alloca %"class.QuantLib::Brent", align 8
  store ptr %this, ptr %this.addr, align 8, !tbaa !3
  store double %targetValue, ptr %targetValue.addr, align 8, !tbaa !19
  store double %accuracy, ptr %accuracy.addr, align 8, !tbaa !19
  store i64 %maxEvaluations, ptr %maxEvaluations.addr, align 8, !tbaa !21
  store double %minVol, ptr %minVol.addr, align 8, !tbaa !19
  store double %maxVol, ptr %maxVol.addr, align 8, !tbaa !19
  %this1 = load ptr, ptr %this.addr, align 8
  call void @llvm.lifetime.start.p0(i64 16, ptr %f) #19
  %0 = load double, ptr %targetValue.addr, align 8, !tbaa !19
  call void @_ZN8QuantLib22BlackCalibrationHelper23ImpliedVolatilityHelperC2ERKS0_d(ptr noundef nonnull align 8 dereferenceable(16) %f, ptr noundef nonnull align 8 dereferenceable(84) %this1, double noundef %0)
  call void @llvm.lifetime.start.p0(i64 80, ptr %solver) #19
  call void @_ZN8QuantLib5BrentC2Ev(ptr noundef nonnull align 8 dereferenceable(74) %solver) #19
  %1 = load i64, ptr %maxEvaluations.addr, align 8, !tbaa !21
  call void @_ZN8QuantLib8Solver1DINS_5BrentEE17setMaxEvaluationsEm(ptr noundef nonnull align 8 dereferenceable(74) %solver, i64 noundef %1)
  %2 = load double, ptr %accuracy.addr, align 8, !tbaa !19
  %volatility_ = getelementptr inbounds nuw %"class.QuantLib::BlackCalibrationHelper", ptr %this1, i32 0, i32 4
  %call = call noundef nonnull align 8 dereferenceable(16) ptr @_ZNK8QuantLib6HandleINS_5QuoteEEptEv(ptr noundef nonnull align 8 dereferenceable(16) %volatility_)
  %call2 = call noundef ptr @_ZNK5boost10shared_ptrIN8QuantLib5QuoteEEptEv(ptr noundef nonnull align 8 dereferenceable(16) %call)
  %vtable = load ptr, ptr %call2, align 8, !tbaa !15
  %vfn = getelementptr inbounds ptr, ptr %vtable, i64 2
  %3 = load ptr, ptr %vfn, align 8
  %call3 = call noundef double %3(ptr noundef nonnull align 8 dereferenceable(8) %call2)
  %4 = load double, ptr %minVol.addr, align 8, !tbaa !19
  %5 = load double, ptr %maxVol.addr, align 8, !tbaa !19
  %call4 = call noundef double @_ZNK8QuantLib8Solver1DINS_5BrentEE5solveINS_22BlackCalibrationHelper23ImpliedVolatilityHelperEEEdRKT_dddd(ptr noundef nonnull align 8 dereferenceable(74) %solver, ptr noundef nonnull align 8 dereferenceable(16) %f, double noundef %2, double noundef %call3, double noundef %4, double noundef %5)
  call void @llvm.lifetime.end.p0(i64 80, ptr %solver) #19
  call void @llvm.lifetime.end.p0(i64 16, ptr %f) #19
  ret double %call4
}