; Function Attrs: mustprogress uwtable
define noundef double @_ZNK8QuantLib22BlackCalibrationHelper17impliedVolatilityEddmdd(ptr noundef nonnull align 8 dereferenceable(84) %this, double noundef %targetValue, double noundef %accuracy, i64 noundef %maxEvaluations, double noundef %minVol, double noundef %maxVol) local_unnamed_addr #7 align 2 {
entry:
  %f = alloca %"class.QuantLib::BlackCalibrationHelper::ImpliedVolatilityHelper", align 8
  %solver = alloca %"class.QuantLib::Brent", align 8
  call void @llvm.lifetime.start.p0(i64 16, ptr nonnull %f) #22
  store ptr %this, ptr %f, align 8, !tbaa !15
  %value_.i = getelementptr inbounds nuw i8, ptr %f, i64 8
  store double %targetValue, ptr %value_.i, align 8, !tbaa !17
  call void @llvm.lifetime.start.p0(i64 80, ptr nonnull %solver) #22
  %maxEvaluations_.i.i = getelementptr inbounds nuw i8, ptr %solver, i64 40
  %lowerBound_.i.i = getelementptr inbounds nuw i8, ptr %solver, i64 56
  call void @llvm.memset.p0.i64(ptr noundef nonnull align 8 dereferenceable(18) %lowerBound_.i.i, i8 0, i64 18, i1 false)
  store i64 %maxEvaluations, ptr %maxEvaluations_.i.i, align 8, !tbaa !20
  %volatility_ = getelementptr inbounds nuw i8, ptr %this, i64 32
  %call = tail call noundef nonnull align 8 dereferenceable(16) ptr @_ZNK8QuantLib6HandleINS_5QuoteEEptEv(ptr noundef nonnull align 8 dereferenceable(16) %volatility_)
  %0 = load ptr, ptr %call, align 8, !tbaa !23
  %cmp.not.i = icmp eq ptr %0, null
  br i1 %cmp.not.i, label %cond.false.i, label %_ZNK5boost10shared_ptrIN8QuantLib5QuoteEEptEv.exit, !prof !26

cond.false.i:                                     ; preds = %entry
  tail call void @_ZN5boost16assertion_failedEPKcS1_S1_l(ptr noundef nonnull @.str.5, ptr noundef nonnull @__PRETTY_FUNCTION__._ZNK5boost10shared_ptrIN8QuantLib5QuoteEEptEv, ptr noundef nonnull @.str.6, i64 noundef 784)
  %.pre.i = load ptr, ptr %call, align 8, !tbaa !23
  br label %_ZNK5boost10shared_ptrIN8QuantLib5QuoteEEptEv.exit

_ZNK5boost10shared_ptrIN8QuantLib5QuoteEEptEv.exit: ; preds = %entry, %cond.false.i
  %1 = phi ptr [ %0, %entry ], [ %.pre.i, %cond.false.i ]
  %vtable = load ptr, ptr %1, align 8, !tbaa !13
  %vfn = getelementptr inbounds i8, ptr %vtable, i64 16
  %2 = load ptr, ptr %vfn, align 8
  %call3 = tail call noundef double %2(ptr noundef nonnull align 8 dereferenceable(8) %1)
  %call4 = call noundef double @_ZNK8QuantLib8Solver1DINS_5BrentEE5solveINS_22BlackCalibrationHelper23ImpliedVolatilityHelperEEEdRKT_dddd(ptr noundef nonnull align 8 dereferenceable(74) %solver, ptr noundef nonnull align 8 dereferenceable(16) %f, double noundef %accuracy, double noundef %call3, double noundef %minVol, double noundef %maxVol)
  call void @llvm.lifetime.end.p0(i64 80, ptr nonnull %solver) #22
  call void @llvm.lifetime.end.p0(i64 16, ptr nonnull %f) #22
  ret double %call4
}